; Function Attrs: mustprogress uwtable
define void @_ZN3gmx10ImdSession4Impl15prepareMDForcesEv(ptr noundef nonnull align 8 captures(none) dereferenceable(296) %0) local_unnamed_addr #0 align 2 {
  %2 = getelementptr inbounds nuw i8, ptr %0, i64 176
  %3 = getelementptr inbounds nuw i8, ptr %0, i64 168
  %4 = load i32, ptr %3, align 8, !tbaa !171
  %5 = sext i32 %4 to i64
  %6 = load ptr, ptr %2, align 8, !tbaa !167
  %7 = tail call noundef ptr @_Z12save_reallocPKcS0_iPvmm(ptr noundef nonnull @.str.22, ptr noundef nonnull @.str.3, i32 noundef 745, ptr noundef %6, i64 noundef range(i64 -2147483648, 2147483648) %5, i64 noundef 4)
  store ptr %7, ptr %2, align 8, !tbaa !167
  %8 = getelementptr inbounds nuw i8, ptr %0, i64 184
  %9 = load i32, ptr %3, align 8, !tbaa !171
  %10 = sext i32 %9 to i64
  %11 = load ptr, ptr %8, align 8, !tbaa !168
  %12 = tail call noundef ptr @_Z12save_reallocPKcS0_iPvmm(ptr noundef nonnull @.str.23, ptr noundef nonnull @.str.3, i32 noundef 746, ptr noundef %11, i64 noundef range(i64 -2147483648, 2147483648) %10, i64 noundef 12)
  store ptr %12, ptr %8, align 8, !tbaa !168
  ret void
}